target datalayout = "e-m:e-p270:32:32-p271:32:32-p272:64:64-i64:64-i128:128-f80:128-n8:16:32:64-S128"
target triple = "x86_64-pc-linux-gnu"

%class.TransTableS = type <{ %class.TransTable, [14 x i64], %"struct.TransTableS::statsResetsType", [4 x i8], [5 x %"struct.TransTableS::winCardType"], i32, i32, i64, i64, i64, i32, i32, i32, i32, i32, i8, [3 x i8], i32, [4 x i8], ptr, [14 x [4 x ptr]], ptr, ptr, [14 x [4 x ptr]], ptr, ptr, [14 x [4 x ptr]], i32, i32, [14 x [4 x i32]], [14 x [4 x i32]], %"class.std::vector", [14 x i64], i32, [4 x i8] }>
%class.TransTable = type { ptr }
%"struct.TransTableS::statsResetsType" = type { i32, [6 x i32] }
%"struct.TransTableS::winCardType" = type { i32, i32, ptr, ptr, ptr, ptr }
%"class.std::vector" = type { %"struct.std::_Vector_base" }
%"struct.std::_Vector_base" = type { %"struct.std::_Vector_base<std::__cxx11::basic_string<char>, std::allocator<std::__cxx11::basic_string<char>>>::_Vector_impl" }
%"struct.std::_Vector_base<std::__cxx11::basic_string<char>, std::allocator<std::__cxx11::basic_string<char>>>::_Vector_impl" = type { %"struct.std::_Vector_base<std::__cxx11::basic_string<char>, std::allocator<std::__cxx11::basic_string<char>>>::_Vector_impl_data" }
%"struct.std::_Vector_base<std::__cxx11::basic_string<char>, std::allocator<std::__cxx11::basic_string<char>>>::_Vector_impl_data" = type { ptr, ptr, ptr }

; Function Attrs: mustprogress nounwind uwtable
define void @_ZN11TransTableS9AddLenSetEii(ptr noundef nonnull align 8 dereferenceable(2396) %0, i32 noundef %1, i32 noundef %2) #5 align 2 {
  %4 = alloca ptr, align 8
  %5 = alloca i32, align 4
  %6 = alloca i32, align 4
  %7 = alloca i32, align 4
  store ptr %0, ptr %4, align 8
  store i32 %1, ptr %5, align 4
  store i32 %2, ptr %6, align 4
  %8 = load ptr, ptr %4, align 8
  %9 = getelementptr inbounds nuw %class.TransTableS, ptr %8, i32 0, i32 29
  %10 = load i32, ptr %5, align 4
  %11 = sext i32 %10 to i64
  %12 = getelementptr inbounds [14 x [4 x i32]], ptr %9, i64 0, i64 %11
  %13 = load i32, ptr %6, align 4
  %14 = sext i32 %13 to i64
  %15 = getelementptr inbounds [4 x i32], ptr %12, i64 0, i64 %14
  %16 = load i32, ptr %15, align 4
  %17 = icmp slt i32 %16, 200
  br i1 %17, label %18, label %28

18:                                               ; preds = %3
  %19 = getelementptr inbounds nuw %class.TransTableS, ptr %8, i32 0, i32 29
  %20 = load i32, ptr %5, align 4
  %21 = sext i32 %20 to i64
  %22 = getelementptr inbounds [14 x [4 x i32]], ptr %19, i64 0, i64 %21
  %23 = load i32, ptr %6, align 4
  %24 = sext i32 %23 to i64
  %25 = getelementptr inbounds [4 x i32], ptr %22, i64 0, i64 %24
  %26 = load i32, ptr %25, align 4
  %27 = add nsw i32 %26, 1
  store i32 %27, ptr %25, align 4
  br label %137

28:                                               ; preds = %3
  store i32 6432, ptr %7, align 4
  %29 = getelementptr inbounds nuw %class.TransTableS, ptr %8, i32 0, i32 8
  %30 = load i64, ptr %29, align 8
  %31 = add i64 %30, 6432
  %32 = getelementptr inbounds nuw %class.TransTableS, ptr %8, i32 0, i32 7
  %33 = load i64, ptr %32, align 8
  %34 = icmp ugt i64 %31, %33
  br i1 %34, label %47, label %35

35:                                               ; preds = %28
  %36 = getelementptr inbounds nuw %class.TransTableS, ptr %8, i32 0, i32 30
  %37 = load i32, ptr %5, align 4
  %38 = sext i32 %37 to i64
  %39 = getelementptr inbounds [14 x [4 x i32]], ptr %36, i64 0, i64 %38
  %40 = load i32, ptr %6, align 4
  %41 = sext i32 %40 to i64
  %42 = getelementptr inbounds [4 x i32], ptr %39, i64 0, i64 %41
  %43 = load i32, ptr %42, align 4
  %44 = getelementptr inbounds nuw %class.TransTableS, ptr %8, i32 0, i32 12
  %45 = load i32, ptr %44, align 8
  %46 = icmp sge i32 %43, %45
  br i1 %46, label %47, label %49

47:                                               ; preds = %35, %28
  %48 = getelementptr inbounds nuw %class.TransTableS, ptr %8, i32 0, i32 15
  store i8 1, ptr %48, align 4
  br label %137

49:                                               ; preds = %35
  %50 = getelementptr inbounds nuw %class.TransTableS, ptr %8, i32 0, i32 30
  %51 = load i32, ptr %5, align 4
  %52 = sext i32 %51 to i64
  %53 = getelementptr inbounds [14 x [4 x i32]], ptr %50, i64 0, i64 %52
  %54 = load i32, ptr %6, align 4
  %55 = sext i32 %54 to i64
  %56 = getelementptr inbounds [4 x i32], ptr %53, i64 0, i64 %55
  %57 = load i32, ptr %56, align 4
  %58 = add nsw i32 %57, 1
  store i32 %58, ptr %56, align 4
  %59 = call noalias ptr @malloc(i64 noundef 6432) #18
  %60 = getelementptr inbounds nuw %class.TransTableS, ptr %8, i32 0, i32 23
  %61 = load i32, ptr %5, align 4
  %62 = sext i32 %61 to i64
  %63 = getelementptr inbounds [14 x [4 x ptr]], ptr %60, i64 0, i64 %62
  %64 = load i32, ptr %6, align 4
  %65 = sext i32 %64 to i64
  %66 = getelementptr inbounds [4 x ptr], ptr %63, i64 0, i64 %65
  %67 = load ptr, ptr %66, align 8
  %68 = getelementptr inbounds nuw %class.TransTableS, ptr %8, i32 0, i32 30
  %69 = load i32, ptr %5, align 4
  %70 = sext i32 %69 to i64
  %71 = getelementptr inbounds [14 x [4 x i32]], ptr %68, i64 0, i64 %70
  %72 = load i32, ptr %6, align 4
  %73 = sext i32 %72 to i64
  %74 = getelementptr inbounds [4 x i32], ptr %71, i64 0, i64 %73
  %75 = load i32, ptr %74, align 4
  %76 = sext i32 %75 to i64
  %77 = getelementptr inbounds ptr, ptr %67, i64 %76
  store ptr %59, ptr %77, align 8
  %78 = getelementptr inbounds nuw %class.TransTableS, ptr %8, i32 0, i32 23
  %79 = load i32, ptr %5, align 4
  %80 = sext i32 %79 to i64
  %81 = getelementptr inbounds [14 x [4 x ptr]], ptr %78, i64 0, i64 %80
  %82 = load i32, ptr %6, align 4
  %83 = sext i32 %82 to i64
  %84 = getelementptr inbounds [4 x ptr], ptr %81, i64 0, i64 %83
  %85 = load ptr, ptr %84, align 8
  %86 = getelementptr inbounds nuw %class.TransTableS, ptr %8, i32 0, i32 30
  %87 = load i32, ptr %5, align 4
  %88 = sext i32 %87 to i64
  %89 = getelementptr inbounds [14 x [4 x i32]], ptr %86, i64 0, i64 %88
  %90 = load i32, ptr %6, align 4
  %91 = sext i32 %90 to i64
  %92 = getelementptr inbounds [4 x i32], ptr %89, i64 0, i64 %91
  %93 = load i32, ptr %92, align 4
  %94 = sext i32 %93 to i64
  %95 = getelementptr inbounds ptr, ptr %85, i64 %94
  %96 = load ptr, ptr %95, align 8
  %97 = icmp eq ptr %96, null
  br i1 %97, label %98, label %100

98:                                               ; preds = %49
  %99 = getelementptr inbounds nuw %class.TransTableS, ptr %8, i32 0, i32 15
  store i8 1, ptr %99, align 4
  br label %137

100:                                              ; preds = %49
  %101 = getelementptr inbounds nuw %class.TransTableS, ptr %8, i32 0, i32 8
  %102 = load i64, ptr %101, align 8
  %103 = add i64 %102, 6432
  store i64 %103, ptr %101, align 8
  %104 = getelementptr inbounds nuw %class.TransTableS, ptr %8, i32 0, i32 29
  %105 = load i32, ptr %5, align 4
  %106 = sext i32 %105 to i64
  %107 = getelementptr inbounds [14 x [4 x i32]], ptr %104, i64 0, i64 %106
  %108 = load i32, ptr %6, align 4
  %109 = sext i32 %108 to i64
  %110 = getelementptr inbounds [4 x i32], ptr %107, i64 0, i64 %109
  store i32 0, ptr %110, align 4
  %111 = getelementptr inbounds nuw %class.TransTableS, ptr %8, i32 0, i32 23
  %112 = load i32, ptr %5, align 4
  %113 = sext i32 %112 to i64
  %114 = getelementptr inbounds [14 x [4 x ptr]], ptr %111, i64 0, i64 %113
  %115 = load i32, ptr %6, align 4
  %116 = sext i32 %115 to i64
  %117 = getelementptr inbounds [4 x ptr], ptr %114, i64 0, i64 %116
  %118 = load ptr, ptr %117, align 8
  %119 = getelementptr inbounds nuw %class.TransTableS, ptr %8, i32 0, i32 30
  %120 = load i32, ptr %5, align 4
  %121 = sext i32 %120 to i64
  %122 = getelementptr inbounds [14 x [4 x i32]], ptr %119, i64 0, i64 %121
  %123 = load i32, ptr %6, align 4
  %124 = sext i32 %123 to i64
  %125 = getelementptr inbounds [4 x i32], ptr %122, i64 0, i64 %124
  %126 = load i32, ptr %125, align 4
  %127 = sext i32 %126 to i64
  %128 = getelementptr inbounds ptr, ptr %118, i64 %127
  %129 = load ptr, ptr %128, align 8
  %130 = getelementptr inbounds nuw %class.TransTableS, ptr %8, i32 0, i32 26
  %131 = load i32, ptr %5, align 4
  %132 = sext i32 %131 to i64
  %133 = getelementptr inbounds [14 x [4 x ptr]], ptr %130, i64 0, i64 %132
  %134 = load i32, ptr %6, align 4
  %135 = sext i32 %134 to i64
  %136 = getelementptr inbounds [4 x ptr], ptr %133, i64 0, i64 %135
  store ptr %129, ptr %136, align 8
  br label %137

137:                                              ; preds = %100, %98, %47, %18
  ret void
}