; Function Attrs: mustprogress nofree nounwind willreturn uwtable
define void @_ZN11TransTableS9AddLenSetEii(ptr nocapture noundef nonnull align 8 dereferenceable(2396) %0, i32 noundef %1, i32 noundef %2) local_unnamed_addr #17 align 2 {
  %4 = getelementptr inbounds nuw i8, ptr %0, i64 1808
  %5 = sext i32 %1 to i64
  %6 = sext i32 %2 to i64
  %7 = getelementptr inbounds [14 x [4 x i32]], ptr %4, i64 0, i64 %5, i64 %6
  %8 = load i32, ptr %7, align 4
  %9 = icmp slt i32 %8, 200
  br i1 %9, label %10, label %12

10:                                               ; preds = %3
  %11 = add nsw i32 %8, 1
  store i32 %11, ptr %7, align 4
  br label %53

12:                                               ; preds = %3
  %13 = getelementptr inbounds nuw i8, ptr %0, i64 368
  %14 = load i64, ptr %13, align 8
  %15 = add i64 %14, 6432
  %16 = getelementptr inbounds nuw i8, ptr %0, i64 360
  %17 = load i64, ptr %16, align 8
  %18 = icmp ugt i64 %15, %17
  br i1 %18, label %25, label %19

19:                                               ; preds = %12
  %20 = getelementptr inbounds nuw i8, ptr %0, i64 2032
  %21 = getelementptr inbounds [14 x [4 x i32]], ptr %20, i64 0, i64 %5, i64 %6
  %22 = load i32, ptr %21, align 4
  %23 = getelementptr inbounds nuw i8, ptr %0, i64 392
  %24 = load i32, ptr %23, align 8
  %.not = icmp slt i32 %22, %24
  br i1 %.not, label %27, label %25

25:                                               ; preds = %19, %12
  %26 = getelementptr inbounds nuw i8, ptr %0, i64 404
  store i8 1, ptr %26, align 4
  br label %53

27:                                               ; preds = %19
  %28 = add nsw i32 %22, 1
  store i32 %28, ptr %21, align 4
  %29 = tail call noalias dereferenceable_or_null(6432) ptr @malloc(i64 noundef 6432) #30
  %30 = getelementptr inbounds nuw i8, ptr %0, i64 888
  %31 = getelementptr inbounds [14 x [4 x ptr]], ptr %30, i64 0, i64 %5, i64 %6
  %32 = load ptr, ptr %31, align 8
  %33 = sext i32 %28 to i64
  %34 = getelementptr inbounds ptr, ptr %32, i64 %33
  store ptr %29, ptr %34, align 8
  %35 = load ptr, ptr %31, align 8
  %36 = load i32, ptr %21, align 4
  %37 = sext i32 %36 to i64
  %38 = getelementptr inbounds ptr, ptr %35, i64 %37
  %39 = load ptr, ptr %38, align 8
  %40 = icmp eq ptr %39, null
  br i1 %40, label %41, label %43

41:                                               ; preds = %27
  %42 = getelementptr inbounds nuw i8, ptr %0, i64 404
  store i8 1, ptr %42, align 4
  br label %53

43:                                               ; preds = %27
  %44 = load i64, ptr %13, align 8
  %45 = add i64 %44, 6432
  store i64 %45, ptr %13, align 8
  store i32 0, ptr %7, align 4
  %46 = load ptr, ptr %31, align 8
  %47 = load i32, ptr %21, align 4
  %48 = sext i32 %47 to i64
  %49 = getelementptr inbounds ptr, ptr %46, i64 %48
  %50 = load ptr, ptr %49, align 8
  %51 = getelementptr inbounds nuw i8, ptr %0, i64 1352
  %52 = getelementptr inbounds [14 x [4 x ptr]], ptr %51, i64 0, i64 %5, i64 %6
  store ptr %50, ptr %52, align 8
  br label %53

53:                                               ; preds = %43, %41, %25, %10
  ret void
}